target datalayout = "e-m:e-p270:32:32-p271:32:32-p272:64:64-i64:64-i128:128-f80:128-n8:16:32:64-S128"
target triple = "x86_64-unknown-linux-gnu"

; Function Attrs: mustprogress nounwind uwtable
define linkonce_odr hidden noundef i32 @_ZN6Assimp14ASSIMP_stricmpEPKcS1_(ptr noundef %s1, ptr noundef %s2) #0 comdat {
entry:
  %s1.addr = alloca ptr, align 8
  %s2.addr = alloca ptr, align 8
  %c1 = alloca i8, align 1
  %c2 = alloca i8, align 1
  store ptr %s1, ptr %s1.addr, align 8
  store ptr %s2, ptr %s2.addr, align 8
  br label %do.body

do.body:                                          ; preds = %land.end, %entry
  %0 = load ptr, ptr %s1.addr, align 8
  %incdec.ptr = getelementptr inbounds i8, ptr %0, i32 1
  store ptr %incdec.ptr, ptr %s1.addr, align 8
  %1 = load i8, ptr %0, align 1
  %conv = zext i8 %1 to i32
  %call = call i32 @tolower(i32 noundef %conv) #13
  %conv1 = trunc i32 %call to i8
  store i8 %conv1, ptr %c1, align 1
  %2 = load ptr, ptr %s2.addr, align 8
  %incdec.ptr2 = getelementptr inbounds i8, ptr %2, i32 1
  store ptr %incdec.ptr2, ptr %s2.addr, align 8
  %3 = load i8, ptr %2, align 1
  %conv3 = zext i8 %3 to i32
  %call4 = call i32 @tolower(i32 noundef %conv3) #13
  %conv5 = trunc i32 %call4 to i8
  store i8 %conv5, ptr %c2, align 1
  br label %do.cond

do.cond:                                          ; preds = %do.body
  %4 = load i8, ptr %c1, align 1
  %tobool = icmp ne i8 %4, 0
  br i1 %tobool, label %land.rhs, label %land.end

land.rhs:                                         ; preds = %do.cond
  %5 = load i8, ptr %c1, align 1
  %conv6 = sext i8 %5 to i32
  %6 = load i8, ptr %c2, align 1
  %conv7 = sext i8 %6 to i32
  %cmp = icmp eq i32 %conv6, %conv7
  br label %land.end

land.end:                                         ; preds = %land.rhs, %do.cond
  %7 = phi i1 [ false, %do.cond ], [ %cmp, %land.rhs ]
  br i1 %7, label %do.body, label %do.end, !llvm.loop !4

do.end:                                           ; preds = %land.end
  %8 = load i8, ptr %c1, align 1
  %conv8 = sext i8 %8 to i32
  %9 = load i8, ptr %c2, align 1
  %conv9 = sext i8 %9 to i32
  %sub = sub nsw i32 %conv8, %conv9
  ret i32 %sub
}

; Function Attrs: mustprogress uwtable
define noundef zeroext i1 @_ZNK6Assimp8IOSystem12ComparePathsEPKcS2_(ptr noundef nonnull align 8 dereferenceable(32) %this, ptr noundef %one, ptr noundef %second) unnamed_addr #2 align 2 {
entry:
  %this.addr = alloca ptr, align 8
  %one.addr = alloca ptr, align 8
  %second.addr = alloca ptr, align 8
  store ptr %this, ptr %this.addr, align 8
  store ptr %one, ptr %one.addr, align 8
  store ptr %second, ptr %second.addr, align 8
  %0 = load ptr, ptr %one.addr, align 8
  %1 = load ptr, ptr %second.addr, align 8
  %call = call noundef i32 @_ZN6Assimp14ASSIMP_stricmpEPKcS1_(ptr noundef %0, ptr noundef %1)
  %tobool = icmp ne i32 %call, 0
  %lnot = xor i1 %tobool, true
  ret i1 %lnot
}