; Function Attrs: mustprogress nofree nounwind willreturn memory(read) uwtable
define noundef zeroext i1 @_ZNK6Assimp8IOSystem12ComparePathsEPKcS2_(ptr nocapture nonnull readnone align 8 %this, ptr nocapture noundef readonly %one, ptr nocapture noundef readonly %second) unnamed_addr #8 align 2 {
entry:
  br label %do.body.i

do.body.i:                                        ; preds = %do.body.i, %entry
  %s2.addr.0.i = phi ptr [ %second, %entry ], [ %incdec.ptr2.i, %do.body.i ]
  %s1.addr.0.i = phi ptr [ %one, %entry ], [ %incdec.ptr.i, %do.body.i ]
  %incdec.ptr.i = getelementptr inbounds i8, ptr %s1.addr.0.i, i64 1
  %0 = load i8, ptr %s1.addr.0.i, align 1
  %conv.i = zext i8 %0 to i32
  %call.i = tail call i32 @tolower(i32 noundef %conv.i) #21
  %incdec.ptr2.i = getelementptr inbounds i8, ptr %s2.addr.0.i, i64 1
  %1 = load i8, ptr %s2.addr.0.i, align 1
  %conv3.i = zext i8 %1 to i32
  %call4.i = tail call i32 @tolower(i32 noundef %conv3.i) #21
  %2 = and i32 %call.i, 255
  %tobool.i = icmp ne i32 %2, 0
  %cmp.i.unshifted = xor i32 %call.i, %call4.i
  %cmp.i.mask = and i32 %cmp.i.unshifted, 255
  %cmp.i = icmp eq i32 %cmp.i.mask, 0
  %3 = select i1 %tobool.i, i1 %cmp.i, i1 false
  br i1 %3, label %do.body.i, label %_ZN6Assimp14ASSIMP_stricmpEPKcS1_.exit, !llvm.loop !4

_ZN6Assimp14ASSIMP_stricmpEPKcS1_.exit:           ; preds = %do.body.i
  ret i1 %cmp.i
}